target datalayout = "e-m:e-p270:32:32-p271:32:32-p272:64:64-i64:64-i128:128-f80:128-n8:16:32:64-S128"
target triple = "x86_64-pc-linux-gnu"

@.str = private unnamed_addr constant [8 x i8] c"Success\00", align 1
@.str.1 = private unnamed_addr constant [11 x i8] c"Up-to-date\00", align 1
@.str.2 = private unnamed_addr constant [21 x i8] c"Failed to initialize\00", align 1
@.str.3 = private unnamed_addr constant [48 x i8] c"Invalid, nonexistent, or inaccessible directory\00", align 1
@.str.4 = private unnamed_addr constant [43 x i8] c"Invalid, nonexistent, or inaccessible file\00", align 1
@.str.5 = private unnamed_addr constant [18 x i8] c"Connection failed\00", align 1
@.str.6 = private unnamed_addr constant [11 x i8] c"Empty file\00", align 1
@.str.7 = private unnamed_addr constant [38 x i8] c"Invalid or corrupted CVD/CLD database\00", align 1
@.str.8 = private unnamed_addr constant [12 x i8] c"Test failed\00", align 1
@.str.9 = private unnamed_addr constant [34 x i8] c"Invalid configuration settings(s)\00", align 1
@.str.10 = private unnamed_addr constant [48 x i8] c"Failed to read/write file to database directory\00", align 1
@.str.11 = private unnamed_addr constant [16 x i8] c"HTTP GET failed\00", align 1
@.str.12 = private unnamed_addr constant [54 x i8] c"Downloaded database had lower version than advertised\00", align 1
@.str.13 = private unnamed_addr constant [23 x i8] c"Failed to write to log\00", align 1
@.str.14 = private unnamed_addr constant [26 x i8] c"Failed to update database\00", align 1
@.str.15 = private unnamed_addr constant [24 x i8] c"Memory allocation error\00", align 1
@.str.16 = private unnamed_addr constant [20 x i8] c"Invalid argument(s)\00", align 1
@.str.17 = private unnamed_addr constant [26 x i8] c"Forbidden; Blocked by CDN\00", align 1
@.str.18 = private unnamed_addr constant [31 x i8] c"Too many requests; Retry later\00", align 1
@.str.19 = private unnamed_addr constant [33 x i8] c"Unknown libfreshclam error code!\00", align 1
@.str.116 = private unnamed_addr constant [47 x i8] c"fc_download_url_databases: Invalid arguments.\0A\00", align 1
@.str.117 = private unnamed_addr constant [69 x i8] c"fc_download_url_databases: fc_download_url_database failed: %s (%d)\0A\00", align 1

; Function Attrs: nounwind uwtable
define ptr @fc_strerror(i32 noundef %0) #0 {
  %2 = alloca ptr, align 8
  %3 = alloca i32, align 4
  store i32 %0, ptr %3, align 4
  %4 = load i32, ptr %3, align 4
  switch i32 %4, label %24 [
    i32 0, label %5
    i32 1, label %6
    i32 2, label %7
    i32 3, label %8
    i32 4, label %9
    i32 5, label %10
    i32 6, label %11
    i32 7, label %12
    i32 8, label %13
    i32 9, label %14
    i32 10, label %15
    i32 11, label %16
    i32 12, label %17
    i32 13, label %18
    i32 14, label %19
    i32 15, label %20
    i32 16, label %21
    i32 17, label %22
    i32 18, label %23
  ]

5:                                                ; preds = %1
  store ptr @.str, ptr %2, align 8
  br label %25

6:                                                ; preds = %1
  store ptr @.str.1, ptr %2, align 8
  br label %25

7:                                                ; preds = %1
  store ptr @.str.2, ptr %2, align 8
  br label %25

8:                                                ; preds = %1
  store ptr @.str.3, ptr %2, align 8
  br label %25

9:                                                ; preds = %1
  store ptr @.str.4, ptr %2, align 8
  br label %25

10:                                               ; preds = %1
  store ptr @.str.5, ptr %2, align 8
  br label %25

11:                                               ; preds = %1
  store ptr @.str.6, ptr %2, align 8
  br label %25

12:                                               ; preds = %1
  store ptr @.str.7, ptr %2, align 8
  br label %25

13:                                               ; preds = %1
  store ptr @.str.8, ptr %2, align 8
  br label %25

14:                                               ; preds = %1
  store ptr @.str.9, ptr %2, align 8
  br label %25

15:                                               ; preds = %1
  store ptr @.str.10, ptr %2, align 8
  br label %25

16:                                               ; preds = %1
  store ptr @.str.11, ptr %2, align 8
  br label %25

17:                                               ; preds = %1
  store ptr @.str.12, ptr %2, align 8
  br label %25

18:                                               ; preds = %1
  store ptr @.str.13, ptr %2, align 8
  br label %25

19:                                               ; preds = %1
  store ptr @.str.14, ptr %2, align 8
  br label %25

20:                                               ; preds = %1
  store ptr @.str.15, ptr %2, align 8
  br label %25

21:                                               ; preds = %1
  store ptr @.str.16, ptr %2, align 8
  br label %25

22:                                               ; preds = %1
  store ptr @.str.17, ptr %2, align 8
  br label %25

23:                                               ; preds = %1
  store ptr @.str.18, ptr %2, align 8
  br label %25

24:                                               ; preds = %1
  store ptr @.str.19, ptr %2, align 8
  br label %25

25:                                               ; preds = %24, %23, %22, %21, %20, %19, %18, %17, %16, %15, %14, %13, %12, %11, %10, %9, %8, %7, %6, %5
  %26 = load ptr, ptr %2, align 8
  ret ptr %26
}

; Function Attrs: nounwind uwtable
define i32 @fc_download_url_databases(ptr noundef %0, i32 noundef %1, ptr noundef %2, ptr noundef %3) #0 {
  %5 = alloca ptr, align 8
  %6 = alloca i32, align 4
  %7 = alloca ptr, align 8
  %8 = alloca ptr, align 8
  %9 = alloca i32, align 4
  %10 = alloca i32, align 4
  %11 = alloca i32, align 4
  %12 = alloca i32, align 4
  %13 = alloca i32, align 4
  store ptr %0, ptr %5, align 8
  store i32 %1, ptr %6, align 4
  store ptr %2, ptr %7, align 8
  store ptr %3, ptr %8, align 8
  store i32 16, ptr %10, align 4
  store i32 0, ptr %11, align 4
  store i32 0, ptr %12, align 4
  %14 = load ptr, ptr %5, align 8
  %15 = icmp eq ptr null, %14
  br i1 %15, label %22, label %16

16:                                               ; preds = %4
  %17 = load i32, ptr %6, align 4
  %18 = icmp eq i32 0, %17
  br i1 %18, label %22, label %19

19:                                               ; preds = %16
  %20 = load ptr, ptr %8, align 8
  %21 = icmp eq ptr null, %20
  br i1 %21, label %22, label %24

22:                                               ; preds = %19, %16, %4
  %23 = call i32 (i32, ptr, ...) @logg(i32 noundef 4, ptr noundef @.str.116)
  br label %58

24:                                               ; preds = %19
  %25 = load ptr, ptr %8, align 8
  store i32 0, ptr %25, align 4
  store i32 0, ptr %13, align 4
  br label %26

26:                                               ; preds = %52, %24
  %27 = load i32, ptr %13, align 4
  %28 = load i32, ptr %6, align 4
  %29 = icmp ult i32 %27, %28
  br i1 %29, label %30, label %55

30:                                               ; preds = %26
  %31 = load ptr, ptr %5, align 8
  %32 = load i32, ptr %13, align 4
  %33 = zext i32 %32 to i64
  %34 = getelementptr inbounds ptr, ptr %31, i64 %33
  %35 = load ptr, ptr %34, align 8
  %36 = load ptr, ptr %7, align 8
  %37 = call i32 @fc_download_url_database(ptr noundef %35, ptr noundef %36, ptr noundef %11)
  store i32 %37, ptr %9, align 4
  %38 = icmp ne i32 0, %37
  br i1 %38, label %39, label %45

39:                                               ; preds = %30
  %40 = load i32, ptr %9, align 4
  %41 = call ptr @fc_strerror(i32 noundef %40)
  %42 = load i32, ptr %9, align 4
  %43 = call i32 (i32, ptr, ...) @logg(i32 noundef 4, ptr noundef @.str.117, ptr noundef %41, i32 noundef %42)
  %44 = load i32, ptr %9, align 4
  store i32 %44, ptr %10, align 4
  br label %58

45:                                               ; preds = %30
  %46 = load i32, ptr %11, align 4
  %47 = icmp ne i32 %46, 0
  br i1 %47, label %48, label %51

48:                                               ; preds = %45
  %49 = load i32, ptr %12, align 4
  %50 = add i32 %49, 1
  store i32 %50, ptr %12, align 4
  br label %51

51:                                               ; preds = %48, %45
  br label %52

52:                                               ; preds = %51
  %53 = load i32, ptr %13, align 4
  %54 = add i32 %53, 1
  store i32 %54, ptr %13, align 4
  br label %26

55:                                               ; preds = %26
  %56 = load i32, ptr %12, align 4
  %57 = load ptr, ptr %8, align 8
  store i32 %56, ptr %57, align 4
  store i32 0, ptr %10, align 4
  br label %58

58:                                               ; preds = %55, %39, %22
  %59 = load i32, ptr %10, align 4
  ret i32 %59
}