; Function Attrs: nounwind uwtable
define range(i32 19, 18) i32 @fc_download_url_databases(ptr noundef readonly %0, i32 noundef %1, ptr noundef %2, ptr noundef writeonly %3) local_unnamed_addr #1 {
  %5 = alloca i32, align 4
  store i32 0, ptr %5, align 4
  %6 = icmp eq ptr %0, null
  %7 = icmp eq i32 %1, 0
  %or.cond = or i1 %6, %7
  %8 = icmp eq ptr %3, null
  %or.cond3 = or i1 %or.cond, %8
  br i1 %or.cond3, label %9, label %11

9:                                                ; preds = %4
  %10 = tail call i32 (i32, ptr, ...) @logg(i32 noundef 4, ptr noundef nonnull @.str.116) #15
  br label %33

11:                                               ; preds = %4
  store i32 0, ptr %3, align 4
  %wide.trip.count = zext i32 %1 to i64
  br label %12

12:                                               ; preds = %11, %29
  %indvars.iv = phi i64 [ 0, %11 ], [ %indvars.iv.next, %29 ]
  %.01961 = phi i32 [ 0, %11 ], [ %spec.select, %29 ]
  %13 = getelementptr inbounds nuw ptr, ptr %0, i64 %indvars.iv
  %14 = load ptr, ptr %13, align 8
  %15 = call i32 @fc_download_url_database(ptr noundef %14, ptr noundef %2, ptr noundef nonnull %5)
  switch i32 %15, label %27 [
    i32 0, label %29
    i32 17, label %26
    i32 1, label %fc_strerror.exit.loopexit
    i32 2, label %fc_strerror.exit.loopexit63
    i32 3, label %fc_strerror.exit.loopexit83
    i32 4, label %fc_strerror.exit.loopexit102
    i32 5, label %fc_strerror.exit.loopexit121
    i32 6, label %fc_strerror.exit
    i32 7, label %16
    i32 8, label %17
    i32 9, label %18
    i32 10, label %19
    i32 11, label %20
    i32 12, label %21
    i32 13, label %22
    i32 14, label %23
    i32 15, label %24
    i32 16, label %25
  ]

16:                                               ; preds = %12
  br label %fc_strerror.exit

17:                                               ; preds = %12
  br label %fc_strerror.exit

18:                                               ; preds = %12
  br label %fc_strerror.exit

19:                                               ; preds = %12
  br label %fc_strerror.exit

20:                                               ; preds = %12
  br label %fc_strerror.exit

21:                                               ; preds = %12
  br label %fc_strerror.exit

22:                                               ; preds = %12
  br label %fc_strerror.exit

23:                                               ; preds = %12
  br label %fc_strerror.exit

24:                                               ; preds = %12
  br label %fc_strerror.exit

25:                                               ; preds = %12
  br label %fc_strerror.exit

26:                                               ; preds = %12
  br label %fc_strerror.exit

27:                                               ; preds = %12
  br label %fc_strerror.exit

fc_strerror.exit.loopexit:                        ; preds = %12
  br label %fc_strerror.exit

fc_strerror.exit.loopexit63:                      ; preds = %12
  br label %fc_strerror.exit

fc_strerror.exit.loopexit83:                      ; preds = %12
  br label %fc_strerror.exit

fc_strerror.exit.loopexit102:                     ; preds = %12
  br label %fc_strerror.exit

fc_strerror.exit.loopexit121:                     ; preds = %12
  br label %fc_strerror.exit

fc_strerror.exit:                                 ; preds = %12, %fc_strerror.exit.loopexit121, %fc_strerror.exit.loopexit102, %fc_strerror.exit.loopexit83, %fc_strerror.exit.loopexit63, %fc_strerror.exit.loopexit, %16, %17, %18, %19, %20, %21, %22, %23, %24, %25, %26, %27
  %.0.i = phi ptr [ @.str.19, %27 ], [ @.str.17, %26 ], [ @.str.16, %25 ], [ @.str.15, %24 ], [ @.str.14, %23 ], [ @.str.13, %22 ], [ @.str.12, %21 ], [ @.str.11, %20 ], [ @.str.10, %19 ], [ @.str.9, %18 ], [ @.str.8, %17 ], [ @.str.7, %16 ], [ @.str.1, %fc_strerror.exit.loopexit ], [ @.str.2, %fc_strerror.exit.loopexit63 ], [ @.str.3, %fc_strerror.exit.loopexit83 ], [ @.str.4, %fc_strerror.exit.loopexit102 ], [ @.str.5, %fc_strerror.exit.loopexit121 ], [ @.str.6, %12 ]
  %28 = call i32 (i32, ptr, ...) @logg(i32 noundef 4, ptr noundef nonnull @.str.117, ptr noundef nonnull %.0.i, i32 noundef %15) #15
  br label %33

29:                                               ; preds = %12
  %30 = load i32, ptr %5, align 4
  %.not25 = icmp ne i32 %30, 0
  %31 = zext i1 %.not25 to i32
  %spec.select = add i32 %.01961, %31
  %indvars.iv.next = add nuw nsw i64 %indvars.iv, 1
  %exitcond.not = icmp eq i64 %indvars.iv.next, %wide.trip.count
  br i1 %exitcond.not, label %32, label %12

32:                                               ; preds = %29
  store i32 %spec.select, ptr %3, align 4
  br label %33

33:                                               ; preds = %32, %fc_strerror.exit, %9
  %.020 = phi i32 [ 16, %9 ], [ %15, %fc_strerror.exit ], [ 0, %32 ]
  ret i32 %.020
}